#include <math.h>
#include <stdio.h>
#include <stdlib.h>
#include <string.h>

void main()
{
	int counter=0,i=0,j,t,a[300];
	do
	{
		scanf("%d",&a[i]);
		i++;
		counter++;
	}while(getchar()!='\n');
	if(counter==1) printf("No\n");
	else
	{
	    for(i=0;i<counter;i++)
		     for(j=i+1;j<counter;j++)
			     if(a[j]>a[i])
				 {
				    t=a[i];
				    a[i]=a[j];
			        a[j]=t;
				 }
	    if(a[counter-1]==a[0]) printf("No\n");
		else{
		for(i=1;i<counter;i++)
		{
    		if(a[i]!=a[0])
			{
	     		printf("%d\n",a[i]);
	    		break;
			}
		}
		}
	}
}